target datalayout = "e-m:e-p270:32:32-p271:32:32-p272:64:64-i64:64-i128:128-f80:128-n8:16:32:64-S128"
target triple = "x86_64-pc-linux-gnu"

%struct.CVodeMemRec = type { double, ptr, ptr, i32, i32, i32, double, double, ptr, i32, ptr, ptr, i32, ptr, i32, i32, double, double, ptr, i32, i32, i32, ptr, ptr, ptr, i32, i32, ptr, ptr, ptr, i32, double, i32, i32, double, ptr, ptr, i32, ptr, ptr, i32, i32, i32, double, ptr, ptr, [13 x ptr], ptr, ptr, ptr, ptr, ptr, [13 x ptr], ptr, ptr, ptr, ptr, [13 x ptr], ptr, ptr, ptr, ptr, ptr, i32, [13 x ptr], ptr, ptr, ptr, ptr, ptr, i32, double, i32, i32, i32, i32, i32, double, double, double, double, double, double, double, double, [14 x double], [6 x double], [13 x double], double, double, double, double, double, double, double, double, double, double, double, i32, ptr, i32, i64, i32, i32, i32, i32, i32, double, double, double, i64, i64, i64, i64, i64, i64, i64, i64, i64, ptr, i64, i64, ptr, i64, i64, i64, i64, i64, i64, i32, i64, i64, i64, i64, i64, i64, double, double, double, ptr, ptr, ptr, ptr, ptr, i32, i32, i64, double, double, double, i32, double, i32, i32, i32, i32, i32, i32, i32, i32, i32, i32, i32, i32, i32, i32, i32, i32, ptr, ptr, ptr, i32, [6 x [4 x double]], i32, i64, ptr, i32, ptr, ptr, double, double, double, ptr, ptr, ptr, double, double, i32, i32, i64, ptr, i32, i32, ptr, i32 }
%struct.CVDlsMemRec = type { i32, i64, i64, i64, i64, i32, ptr, ptr, ptr, ptr, ptr, ptr, ptr, i64, i64, i64, i64 }
%struct._DlsMat = type { i32, i64, i64, i64, i64, i64, i64, ptr, i64, ptr }

; Function Attrs: nounwind uwtable
define i32 @cvDlsDenseDQJac(i64 noundef %0, double noundef %1, ptr noundef %2, ptr noundef %3, ptr noundef %4, ptr noundef %5, ptr noundef %6, ptr noundef %7, ptr noundef %8) #0 {
  %10 = alloca i64, align 8
  %11 = alloca double, align 8
  %12 = alloca ptr, align 8
  %13 = alloca ptr, align 8
  %14 = alloca ptr, align 8
  %15 = alloca ptr, align 8
  %16 = alloca ptr, align 8
  %17 = alloca ptr, align 8
  %18 = alloca ptr, align 8
  %19 = alloca double, align 8
  %20 = alloca double, align 8
  %21 = alloca double, align 8
  %22 = alloca double, align 8
  %23 = alloca double, align 8
  %24 = alloca double, align 8
  %25 = alloca ptr, align 8
  %26 = alloca ptr, align 8
  %27 = alloca ptr, align 8
  %28 = alloca ptr, align 8
  %29 = alloca ptr, align 8
  %30 = alloca i64, align 8
  %31 = alloca i32, align 4
  %32 = alloca ptr, align 8
  %33 = alloca ptr, align 8
  store i64 %0, ptr %10, align 8, !tbaa !31
  store double %1, ptr %11, align 8, !tbaa !40
  store ptr %2, ptr %12, align 8, !tbaa !41
  store ptr %3, ptr %13, align 8, !tbaa !41
  store ptr %4, ptr %14, align 8, !tbaa !42
  store ptr %5, ptr %15, align 8, !tbaa !3
  store ptr %6, ptr %16, align 8, !tbaa !41
  store ptr %7, ptr %17, align 8, !tbaa !41
  store ptr %8, ptr %18, align 8, !tbaa !41
  call void @llvm.lifetime.start.p0(i64 8, ptr %19) #5
  call void @llvm.lifetime.start.p0(i64 8, ptr %20) #5
  call void @llvm.lifetime.start.p0(i64 8, ptr %21) #5
  call void @llvm.lifetime.start.p0(i64 8, ptr %22) #5
  call void @llvm.lifetime.start.p0(i64 8, ptr %23) #5
  call void @llvm.lifetime.start.p0(i64 8, ptr %24) #5
  call void @llvm.lifetime.start.p0(i64 8, ptr %25) #5
  call void @llvm.lifetime.start.p0(i64 8, ptr %26) #5
  call void @llvm.lifetime.start.p0(i64 8, ptr %27) #5
  call void @llvm.lifetime.start.p0(i64 8, ptr %28) #5
  call void @llvm.lifetime.start.p0(i64 8, ptr %29) #5
  call void @llvm.lifetime.start.p0(i64 8, ptr %30) #5
  call void @llvm.lifetime.start.p0(i64 4, ptr %31) #5
  store i32 0, ptr %31, align 4, !tbaa !43
  call void @llvm.lifetime.start.p0(i64 8, ptr %32) #5
  call void @llvm.lifetime.start.p0(i64 8, ptr %33) #5
  %34 = load ptr, ptr %15, align 8, !tbaa !3
  store ptr %34, ptr %32, align 8, !tbaa !7
  %35 = load ptr, ptr %32, align 8, !tbaa !7
  %36 = getelementptr inbounds nuw %struct.CVodeMemRec, ptr %35, i32 0, i32 144
  %37 = load ptr, ptr %36, align 8, !tbaa !9
  store ptr %37, ptr %33, align 8, !tbaa !21
  %38 = load ptr, ptr %17, align 8, !tbaa !41
  %39 = call ptr @N_VGetArrayPointer(ptr noundef %38)
  store ptr %39, ptr %25, align 8, !tbaa !44
  %40 = load ptr, ptr %16, align 8, !tbaa !41
  store ptr %40, ptr %28, align 8, !tbaa !41
  %41 = load ptr, ptr %17, align 8, !tbaa !41
  store ptr %41, ptr %29, align 8, !tbaa !41
  %42 = load ptr, ptr %32, align 8, !tbaa !7
  %43 = getelementptr inbounds nuw %struct.CVodeMemRec, ptr %42, i32 0, i32 47
  %44 = load ptr, ptr %43, align 8, !tbaa !45
  %45 = call ptr @N_VGetArrayPointer(ptr noundef %44)
  store ptr %45, ptr %27, align 8, !tbaa !44
  %46 = load ptr, ptr %12, align 8, !tbaa !41
  %47 = call ptr @N_VGetArrayPointer(ptr noundef %46)
  store ptr %47, ptr %26, align 8, !tbaa !44
  %48 = load ptr, ptr %32, align 8, !tbaa !7
  %49 = getelementptr inbounds nuw %struct.CVodeMemRec, ptr %48, i32 0, i32 0
  %50 = load double, ptr %49, align 8, !tbaa !46
  %51 = call double @SUNRsqrt(double noundef %50)
  store double %51, ptr %24, align 8, !tbaa !40
  %52 = load ptr, ptr %13, align 8, !tbaa !41
  %53 = load ptr, ptr %32, align 8, !tbaa !7
  %54 = getelementptr inbounds nuw %struct.CVodeMemRec, ptr %53, i32 0, i32 47
  %55 = load ptr, ptr %54, align 8, !tbaa !45
  %56 = call double @N_VWrmsNorm(ptr noundef %52, ptr noundef %55)
  store double %56, ptr %19, align 8, !tbaa !40
  %57 = load double, ptr %19, align 8, !tbaa !40
  %58 = fcmp une double %57, 0.000000e+00
  br i1 %58, label %59, label %74

59:                                               ; preds = %9
  %60 = load ptr, ptr %32, align 8, !tbaa !7
  %61 = getelementptr inbounds nuw %struct.CVodeMemRec, ptr %60, i32 0, i32 78
  %62 = load double, ptr %61, align 8, !tbaa !47
  %63 = call double @SUNRabs(double noundef %62)
  %64 = fmul double 1.000000e+03, %63
  %65 = load ptr, ptr %32, align 8, !tbaa !7
  %66 = getelementptr inbounds nuw %struct.CVodeMemRec, ptr %65, i32 0, i32 0
  %67 = load double, ptr %66, align 8, !tbaa !46
  %68 = fmul double %64, %67
  %69 = load i64, ptr %10, align 8, !tbaa !31
  %70 = sitofp i64 %69 to double
  %71 = fmul double %68, %70
  %72 = load double, ptr %19, align 8, !tbaa !40
  %73 = fmul double %71, %72
  br label %75

74:                                               ; preds = %9
  br label %75

75:                                               ; preds = %74, %59
  %76 = phi double [ %73, %59 ], [ 1.000000e+00, %74 ]
  store double %76, ptr %20, align 8, !tbaa !40
  store i64 0, ptr %30, align 8, !tbaa !31
  br label %77

77:                                               ; preds = %161, %75
  %78 = load i64, ptr %30, align 8, !tbaa !31
  %79 = load i64, ptr %10, align 8, !tbaa !31
  %80 = icmp slt i64 %78, %79
  br i1 %80, label %81, label %164

81:                                               ; preds = %77
  %82 = load ptr, ptr %14, align 8, !tbaa !42
  %83 = getelementptr inbounds nuw %struct._DlsMat, ptr %82, i32 0, i32 9
  %84 = load ptr, ptr %83, align 8, !tbaa !48
  %85 = load i64, ptr %30, align 8, !tbaa !31
  %86 = getelementptr inbounds ptr, ptr %84, i64 %85
  %87 = load ptr, ptr %86, align 8, !tbaa !44
  %88 = load ptr, ptr %29, align 8, !tbaa !41
  call void @N_VSetArrayPointer(ptr noundef %87, ptr noundef %88)
  %89 = load ptr, ptr %26, align 8, !tbaa !44
  %90 = load i64, ptr %30, align 8, !tbaa !31
  %91 = getelementptr inbounds double, ptr %89, i64 %90
  %92 = load double, ptr %91, align 8, !tbaa !40
  store double %92, ptr %23, align 8, !tbaa !40
  %93 = load double, ptr %24, align 8, !tbaa !40
  %94 = load double, ptr %23, align 8, !tbaa !40
  %95 = call double @SUNRabs(double noundef %94)
  %96 = fmul double %93, %95
  %97 = load double, ptr %20, align 8, !tbaa !40
  %98 = load ptr, ptr %27, align 8, !tbaa !44
  %99 = load i64, ptr %30, align 8, !tbaa !31
  %100 = getelementptr inbounds double, ptr %98, i64 %99
  %101 = load double, ptr %100, align 8, !tbaa !40
  %102 = fdiv double %97, %101
  %103 = fcmp ogt double %96, %102
  br i1 %103, label %104, label %109

104:                                              ; preds = %81
  %105 = load double, ptr %24, align 8, !tbaa !40
  %106 = load double, ptr %23, align 8, !tbaa !40
  %107 = call double @SUNRabs(double noundef %106)
  %108 = fmul double %105, %107
  br label %116

109:                                              ; preds = %81
  %110 = load double, ptr %20, align 8, !tbaa !40
  %111 = load ptr, ptr %27, align 8, !tbaa !44
  %112 = load i64, ptr %30, align 8, !tbaa !31
  %113 = getelementptr inbounds double, ptr %111, i64 %112
  %114 = load double, ptr %113, align 8, !tbaa !40
  %115 = fdiv double %110, %114
  br label %116

116:                                              ; preds = %109, %104
  %117 = phi double [ %108, %104 ], [ %115, %109 ]
  store double %117, ptr %21, align 8, !tbaa !40
  %118 = load double, ptr %21, align 8, !tbaa !40
  %119 = load ptr, ptr %26, align 8, !tbaa !44
  %120 = load i64, ptr %30, align 8, !tbaa !31
  %121 = getelementptr inbounds double, ptr %119, i64 %120
  %122 = load double, ptr %121, align 8, !tbaa !40
  %123 = fadd double %122, %118
  store double %123, ptr %121, align 8, !tbaa !40
  %124 = load ptr, ptr %32, align 8, !tbaa !7
  %125 = getelementptr inbounds nuw %struct.CVodeMemRec, ptr %124, i32 0, i32 1
  %126 = load ptr, ptr %125, align 8, !tbaa !51
  %127 = load double, ptr %11, align 8, !tbaa !40
  %128 = load ptr, ptr %12, align 8, !tbaa !41
  %129 = load ptr, ptr %28, align 8, !tbaa !41
  %130 = load ptr, ptr %32, align 8, !tbaa !7
  %131 = getelementptr inbounds nuw %struct.CVodeMemRec, ptr %130, i32 0, i32 2
  %132 = load ptr, ptr %131, align 8, !tbaa !52
  %133 = call i32 %126(double noundef %127, ptr noundef %128, ptr noundef %129, ptr noundef %132)
  store i32 %133, ptr %31, align 4, !tbaa !43
  %134 = load ptr, ptr %33, align 8, !tbaa !21
  %135 = getelementptr inbounds nuw %struct.CVDlsMemRec, ptr %134, i32 0, i32 15
  %136 = load i64, ptr %135, align 8, !tbaa !36
  %137 = add nsw i64 %136, 1
  store i64 %137, ptr %135, align 8, !tbaa !36
  %138 = load i32, ptr %31, align 4, !tbaa !43
  %139 = icmp ne i32 %138, 0
  br i1 %139, label %140, label %141

140:                                              ; preds = %116
  br label %164

141:                                              ; preds = %116
  %142 = load double, ptr %23, align 8, !tbaa !40
  %143 = load ptr, ptr %26, align 8, !tbaa !44
  %144 = load i64, ptr %30, align 8, !tbaa !31
  %145 = getelementptr inbounds double, ptr %143, i64 %144
  store double %142, ptr %145, align 8, !tbaa !40
  %146 = load double, ptr %21, align 8, !tbaa !40
  %147 = fdiv double 1.000000e+00, %146
  store double %147, ptr %22, align 8, !tbaa !40
  %148 = load double, ptr %22, align 8, !tbaa !40
  %149 = load ptr, ptr %28, align 8, !tbaa !41
  %150 = load double, ptr %22, align 8, !tbaa !40
  %151 = fneg double %150
  %152 = load ptr, ptr %13, align 8, !tbaa !41
  %153 = load ptr, ptr %29, align 8, !tbaa !41
  call void @N_VLinearSum(double noundef %148, ptr noundef %149, double noundef %151, ptr noundef %152, ptr noundef %153)
  %154 = load ptr, ptr %29, align 8, !tbaa !41
  %155 = call ptr @N_VGetArrayPointer(ptr noundef %154)
  %156 = load ptr, ptr %14, align 8, !tbaa !42
  %157 = getelementptr inbounds nuw %struct._DlsMat, ptr %156, i32 0, i32 9
  %158 = load ptr, ptr %157, align 8, !tbaa !48
  %159 = load i64, ptr %30, align 8, !tbaa !31
  %160 = getelementptr inbounds ptr, ptr %158, i64 %159
  store ptr %155, ptr %160, align 8, !tbaa !44
  br label %161

161:                                              ; preds = %141
  %162 = load i64, ptr %30, align 8, !tbaa !31
  %163 = add nsw i64 %162, 1
  store i64 %163, ptr %30, align 8, !tbaa !31
  br label %77, !llvm.loop !53

164:                                              ; preds = %140, %77
  %165 = load ptr, ptr %25, align 8, !tbaa !44
  %166 = load ptr, ptr %17, align 8, !tbaa !41
  call void @N_VSetArrayPointer(ptr noundef %165, ptr noundef %166)
  %167 = load i32, ptr %31, align 4, !tbaa !43
  call void @llvm.lifetime.end.p0(i64 8, ptr %33) #5
  call void @llvm.lifetime.end.p0(i64 8, ptr %32) #5
  call void @llvm.lifetime.end.p0(i64 4, ptr %31) #5
  call void @llvm.lifetime.end.p0(i64 8, ptr %30) #5
  call void @llvm.lifetime.end.p0(i64 8, ptr %29) #5
  call void @llvm.lifetime.end.p0(i64 8, ptr %28) #5
  call void @llvm.lifetime.end.p0(i64 8, ptr %27) #5
  call void @llvm.lifetime.end.p0(i64 8, ptr %26) #5
  call void @llvm.lifetime.end.p0(i64 8, ptr %25) #5
  call void @llvm.lifetime.end.p0(i64 8, ptr %24) #5
  call void @llvm.lifetime.end.p0(i64 8, ptr %23) #5
  call void @llvm.lifetime.end.p0(i64 8, ptr %22) #5
  call void @llvm.lifetime.end.p0(i64 8, ptr %21) #5
  call void @llvm.lifetime.end.p0(i64 8, ptr %20) #5
  call void @llvm.lifetime.end.p0(i64 8, ptr %19) #5
  ret i32 %167
}