; Function Attrs: nounwind uwtable
define i32 @cvDlsDenseDQJac(i64 noundef %0, double noundef %1, ptr noundef %2, ptr noundef %3, ptr noundef readonly captures(none) %4, ptr noundef readonly captures(none) %5, ptr noundef %6, ptr noundef %7, ptr noundef readnone captures(none) %8) local_unnamed_addr #0 {
  %10 = getelementptr inbounds nuw i8, ptr %5, i64 1696
  %11 = load ptr, ptr %10, align 8, !tbaa !3
  %12 = tail call ptr @N_VGetArrayPointer(ptr noundef %7) #6
  %13 = getelementptr inbounds nuw i8, ptr %5, i64 424
  %14 = load ptr, ptr %13, align 8, !tbaa !32
  %15 = tail call ptr @N_VGetArrayPointer(ptr noundef %14) #6
  %16 = tail call ptr @N_VGetArrayPointer(ptr noundef %2) #6
  %17 = load double, ptr %5, align 8, !tbaa !33
  %18 = tail call double @SUNRsqrt(double noundef %17) #6
  %19 = load ptr, ptr %13, align 8, !tbaa !32
  %20 = tail call double @N_VWrmsNorm(ptr noundef %3, ptr noundef %19) #6
  %21 = fcmp une double %20, 0.000000e+00
  br i1 %21, label %22, label %32

22:                                               ; preds = %9
  %23 = getelementptr inbounds nuw i8, ptr %5, i64 944
  %24 = load double, ptr %23, align 8, !tbaa !34
  %25 = tail call double @SUNRabs(double noundef %24) #6
  %26 = fmul double %25, 1.000000e+03
  %27 = load double, ptr %5, align 8, !tbaa !33
  %28 = fmul double %26, %27
  %29 = sitofp i64 %0 to double
  %30 = fmul double %28, %29
  %31 = fmul double %20, %30
  br label %32

32:                                               ; preds = %9, %22
  %33 = phi double [ %31, %22 ], [ 1.000000e+00, %9 ]
  %34 = icmp sgt i64 %0, 0
  br i1 %34, label %.lr.ph, label %._crit_edge

.lr.ph:                                           ; preds = %32
  %35 = getelementptr inbounds nuw i8, ptr %4, i64 72
  %36 = getelementptr inbounds nuw i8, ptr %5, i64 8
  %37 = getelementptr inbounds nuw i8, ptr %5, i64 16
  %38 = getelementptr inbounds nuw i8, ptr %11, i64 120
  %.pre = load ptr, ptr %35, align 8, !tbaa !35
  br label %39

39:                                               ; preds = %.lr.ph, %63
  %40 = phi ptr [ %.pre, %.lr.ph ], [ %67, %63 ]
  %.062 = phi i64 [ 0, %.lr.ph ], [ %69, %63 ]
  %41 = getelementptr inbounds nuw ptr, ptr %40, i64 %.062
  %42 = load ptr, ptr %41, align 8, !tbaa !38
  tail call void @N_VSetArrayPointer(ptr noundef %42, ptr noundef %7) #6
  %43 = getelementptr inbounds nuw double, ptr %16, i64 %.062
  %44 = load double, ptr %43, align 8, !tbaa !39
  %45 = tail call double @SUNRabs(double noundef %44) #6
  %46 = fmul double %18, %45
  %47 = getelementptr inbounds nuw double, ptr %15, i64 %.062
  %48 = load double, ptr %47, align 8, !tbaa !39
  %49 = fdiv double %33, %48
  %50 = fcmp ogt double %46, %49
  br i1 %50, label %51, label %54

51:                                               ; preds = %39
  %52 = tail call double @SUNRabs(double noundef %44) #6
  %53 = fmul double %18, %52
  br label %54

54:                                               ; preds = %39, %51
  %55 = phi double [ %53, %51 ], [ %49, %39 ]
  %56 = load double, ptr %43, align 8, !tbaa !39
  %57 = fadd double %55, %56
  store double %57, ptr %43, align 8, !tbaa !39
  %58 = load ptr, ptr %36, align 8, !tbaa !40
  %59 = load ptr, ptr %37, align 8, !tbaa !41
  %60 = tail call i32 %58(double noundef %1, ptr noundef %2, ptr noundef %6, ptr noundef %59) #6
  %61 = load i64, ptr %38, align 8, !tbaa !30
  %62 = add nsw i64 %61, 1
  store i64 %62, ptr %38, align 8, !tbaa !30
  %.not = icmp eq i32 %60, 0
  br i1 %.not, label %63, label %._crit_edge

63:                                               ; preds = %54
  store double %44, ptr %43, align 8, !tbaa !39
  %64 = fdiv double 1.000000e+00, %55
  %65 = fneg double %64
  tail call void @N_VLinearSum(double noundef %64, ptr noundef %6, double noundef %65, ptr noundef %3, ptr noundef %7) #6
  %66 = tail call ptr @N_VGetArrayPointer(ptr noundef %7) #6
  %67 = load ptr, ptr %35, align 8, !tbaa !35
  %68 = getelementptr inbounds nuw ptr, ptr %67, i64 %.062
  store ptr %66, ptr %68, align 8, !tbaa !38
  %69 = add nuw nsw i64 %.062, 1
  %exitcond.not = icmp eq i64 %69, %0
  br i1 %exitcond.not, label %._crit_edge, label %39, !llvm.loop !42

._crit_edge:                                      ; preds = %63, %54, %32
  %.1 = phi i32 [ 0, %32 ], [ %60, %54 ], [ 0, %63 ]
  tail call void @N_VSetArrayPointer(ptr noundef %12, ptr noundef %7) #6
  ret i32 %.1
}